(dp0
S'segment_3'
p1
(dp2
S'Attribute_color_group'
p3
S'black'
p4
sS'Attribute_leg_shape'
p5
S'legging'
p6
sS'Attribute_rise'
p7
S'mid'
p8
ssS'segment_2'
p9
(dp10
g3
S'medium'
p11
sg5
(lp12
S'barely boot'
p13
aS'boot'
p14
aS'skinny'
p15
asg7
S'low'
p16
ssS'segment_1'
p17
(dp18
g3
S'dark'
p19
sg5
(lp20
S'crops'
p21
aS'flare'
p22
ag15
asg7
g8
ssS'segment_0'
p23
(dp24
g3
g4
sg5
(lp25
g6
aS'ankles'
p26
asg7
S'high'
p27
ss.